
race2:     file format elf64-x86-64


Disassembly of section .init:

0000000000401000 <_init>:
  401000:	f3 0f 1e fa          	endbr64 
  401004:	48 83 ec 08          	sub    $0x8,%rsp
  401008:	48 8b 05 e9 2f 00 00 	mov    0x2fe9(%rip),%rax        # 403ff8 <__gmon_start__@Base>
  40100f:	48 85 c0             	test   %rax,%rax
  401012:	74 02                	je     401016 <_init+0x16>
  401014:	ff d0                	call   *%rax
  401016:	48 83 c4 08          	add    $0x8,%rsp
  40101a:	c3                   	ret    

Disassembly of section .plt:

0000000000401020 <puts@plt-0x10>:
  401020:	ff 35 e2 2f 00 00    	push   0x2fe2(%rip)        # 404008 <_GLOBAL_OFFSET_TABLE_+0x8>
  401026:	ff 25 e4 2f 00 00    	jmp    *0x2fe4(%rip)        # 404010 <_GLOBAL_OFFSET_TABLE_+0x10>
  40102c:	0f 1f 40 00          	nopl   0x0(%rax)

0000000000401030 <puts@plt>:
  401030:	ff 25 e2 2f 00 00    	jmp    *0x2fe2(%rip)        # 404018 <puts@GLIBC_2.2.5>
  401036:	68 00 00 00 00       	push   $0x0
  40103b:	e9 e0 ff ff ff       	jmp    401020 <_init+0x20>

0000000000401040 <printf@plt>:
  401040:	ff 25 da 2f 00 00    	jmp    *0x2fda(%rip)        # 404020 <printf@GLIBC_2.2.5>
  401046:	68 01 00 00 00       	push   $0x1
  40104b:	e9 d0 ff ff ff       	jmp    401020 <_init+0x20>

0000000000401050 <pthread_exit@plt>:
  401050:	ff 25 d2 2f 00 00    	jmp    *0x2fd2(%rip)        # 404028 <pthread_exit@GLIBC_2.2.5>
  401056:	68 02 00 00 00       	push   $0x2
  40105b:	e9 c0 ff ff ff       	jmp    401020 <_init+0x20>

0000000000401060 <malloc@plt>:
  401060:	ff 25 ca 2f 00 00    	jmp    *0x2fca(%rip)        # 404030 <malloc@GLIBC_2.2.5>
  401066:	68 03 00 00 00       	push   $0x3
  40106b:	e9 b0 ff ff ff       	jmp    401020 <_init+0x20>

0000000000401070 <pthread_create@plt>:
  401070:	ff 25 c2 2f 00 00    	jmp    *0x2fc2(%rip)        # 404038 <pthread_create@GLIBC_2.34>
  401076:	68 04 00 00 00       	push   $0x4
  40107b:	e9 a0 ff ff ff       	jmp    401020 <_init+0x20>

0000000000401080 <pthread_join@plt>:
  401080:	ff 25 ba 2f 00 00    	jmp    *0x2fba(%rip)        # 404040 <pthread_join@GLIBC_2.34>
  401086:	68 05 00 00 00       	push   $0x5
  40108b:	e9 90 ff ff ff       	jmp    401020 <_init+0x20>

0000000000401090 <sleep@plt>:
  401090:	ff 25 b2 2f 00 00    	jmp    *0x2fb2(%rip)        # 404048 <sleep@GLIBC_2.2.5>
  401096:	68 06 00 00 00       	push   $0x6
  40109b:	e9 80 ff ff ff       	jmp    401020 <_init+0x20>

Disassembly of section .text:

00000000004010a0 <_start>:
  4010a0:	f3 0f 1e fa          	endbr64 
  4010a4:	31 ed                	xor    %ebp,%ebp
  4010a6:	49 89 d1             	mov    %rdx,%r9
  4010a9:	5e                   	pop    %rsi
  4010aa:	48 89 e2             	mov    %rsp,%rdx
  4010ad:	48 83 e4 f0          	and    $0xfffffffffffffff0,%rsp
  4010b1:	50                   	push   %rax
  4010b2:	54                   	push   %rsp
  4010b3:	45 31 c0             	xor    %r8d,%r8d
  4010b6:	31 c9                	xor    %ecx,%ecx
  4010b8:	48 c7 c7 06 12 40 00 	mov    $0x401206,%rdi
  4010bf:	ff 15 2b 2f 00 00    	call   *0x2f2b(%rip)        # 403ff0 <__libc_start_main@GLIBC_2.34>
  4010c5:	f4                   	hlt    

00000000004010c6 <.annobin_abi_note.c>:
  4010c6:	66 2e 0f 1f 84 00 00 	cs nopw 0x0(%rax,%rax,1)
  4010cd:	00 00 00 

00000000004010d0 <_dl_relocate_static_pie>:
  4010d0:	f3 0f 1e fa          	endbr64 
  4010d4:	c3                   	ret    

00000000004010d5 <.annobin__dl_relocate_static_pie.end>:
  4010d5:	66 2e 0f 1f 84 00 00 	cs nopw 0x0(%rax,%rax,1)
  4010dc:	00 00 00 
  4010df:	90                   	nop

00000000004010e0 <deregister_tm_clones>:
  4010e0:	b8 60 40 40 00       	mov    $0x404060,%eax
  4010e5:	48 3d 60 40 40 00    	cmp    $0x404060,%rax
  4010eb:	74 13                	je     401100 <deregister_tm_clones+0x20>
  4010ed:	b8 00 00 00 00       	mov    $0x0,%eax
  4010f2:	48 85 c0             	test   %rax,%rax
  4010f5:	74 09                	je     401100 <deregister_tm_clones+0x20>
  4010f7:	bf 60 40 40 00       	mov    $0x404060,%edi
  4010fc:	ff e0                	jmp    *%rax
  4010fe:	66 90                	xchg   %ax,%ax
  401100:	c3                   	ret    
  401101:	66 66 2e 0f 1f 84 00 	data16 cs nopw 0x0(%rax,%rax,1)
  401108:	00 00 00 00 
  40110c:	0f 1f 40 00          	nopl   0x0(%rax)

0000000000401110 <register_tm_clones>:
  401110:	be 60 40 40 00       	mov    $0x404060,%esi
  401115:	48 81 ee 60 40 40 00 	sub    $0x404060,%rsi
  40111c:	48 89 f0             	mov    %rsi,%rax
  40111f:	48 c1 ee 3f          	shr    $0x3f,%rsi
  401123:	48 c1 f8 03          	sar    $0x3,%rax
  401127:	48 01 c6             	add    %rax,%rsi
  40112a:	48 d1 fe             	sar    %rsi
  40112d:	74 11                	je     401140 <register_tm_clones+0x30>
  40112f:	b8 00 00 00 00       	mov    $0x0,%eax
  401134:	48 85 c0             	test   %rax,%rax
  401137:	74 07                	je     401140 <register_tm_clones+0x30>
  401139:	bf 60 40 40 00       	mov    $0x404060,%edi
  40113e:	ff e0                	jmp    *%rax
  401140:	c3                   	ret    
  401141:	66 66 2e 0f 1f 84 00 	data16 cs nopw 0x0(%rax,%rax,1)
  401148:	00 00 00 00 
  40114c:	0f 1f 40 00          	nopl   0x0(%rax)

0000000000401150 <__do_global_dtors_aux>:
  401150:	f3 0f 1e fa          	endbr64 
  401154:	80 3d 05 2f 00 00 00 	cmpb   $0x0,0x2f05(%rip)        # 404060 <__TMC_END__>
  40115b:	75 13                	jne    401170 <__do_global_dtors_aux+0x20>
  40115d:	55                   	push   %rbp
  40115e:	48 89 e5             	mov    %rsp,%rbp
  401161:	e8 7a ff ff ff       	call   4010e0 <deregister_tm_clones>
  401166:	c6 05 f3 2e 00 00 01 	movb   $0x1,0x2ef3(%rip)        # 404060 <__TMC_END__>
  40116d:	5d                   	pop    %rbp
  40116e:	c3                   	ret    
  40116f:	90                   	nop
  401170:	c3                   	ret    
  401171:	66 66 2e 0f 1f 84 00 	data16 cs nopw 0x0(%rax,%rax,1)
  401178:	00 00 00 00 
  40117c:	0f 1f 40 00          	nopl   0x0(%rax)

0000000000401180 <frame_dummy>:
  401180:	f3 0f 1e fa          	endbr64 
  401184:	eb 8a                	jmp    401110 <register_tm_clones>

0000000000401186 <PrintHello>:
  401186:	55                   	push   %rbp
  401187:	48 89 e5             	mov    %rsp,%rbp
  40118a:	48 83 ec 20          	sub    $0x20,%rsp
  40118e:	48 89 7d e8          	mov    %rdi,-0x18(%rbp)
  401192:	bf 04 00 00 00       	mov    $0x4,%edi
  401197:	e8 c4 fe ff ff       	call   401060 <malloc@plt>
  40119c:	48 89 45 f8          	mov    %rax,-0x8(%rbp)
  4011a0:	48 c7 05 bd 2e 00 00 	movq   $0x0,0x2ebd(%rip)        # 404068 <ptr>
  4011a7:	00 00 00 00 
  4011ab:	bf 0a 00 00 00       	mov    $0xa,%edi
  4011b0:	b8 00 00 00 00       	mov    $0x0,%eax
  4011b5:	e8 d6 fe ff ff       	call   401090 <sleep@plt>
  4011ba:	48 8b 45 f8          	mov    -0x8(%rbp),%rax
  4011be:	48 89 05 a3 2e 00 00 	mov    %rax,0x2ea3(%rip)        # 404068 <ptr>
  4011c5:	bf 10 20 40 00       	mov    $0x402010,%edi
  4011ca:	e8 61 fe ff ff       	call   401030 <puts@plt>
  4011cf:	90                   	nop
  4011d0:	c9                   	leave  
  4011d1:	c3                   	ret    

00000000004011d2 <PrintHello1>:
  4011d2:	55                   	push   %rbp
  4011d3:	48 89 e5             	mov    %rsp,%rbp
  4011d6:	48 83 ec 20          	sub    $0x20,%rsp
  4011da:	48 89 7d e8          	mov    %rdi,-0x18(%rbp)
  4011de:	bf 05 00 00 00       	mov    $0x5,%edi
  4011e3:	b8 00 00 00 00       	mov    $0x0,%eax
  4011e8:	e8 a3 fe ff ff       	call   401090 <sleep@plt>
  4011ed:	48 8b 05 74 2e 00 00 	mov    0x2e74(%rip),%rax        # 404068 <ptr>
  4011f4:	8b 00                	mov    (%rax),%eax
  4011f6:	89 45 fc             	mov    %eax,-0x4(%rbp)
  4011f9:	bf 2a 20 40 00       	mov    $0x40202a,%edi
  4011fe:	e8 2d fe ff ff       	call   401030 <puts@plt>
  401203:	90                   	nop
  401204:	c9                   	leave  
  401205:	c3                   	ret    

0000000000401206 <main>:
  401206:	55                   	push   %rbp
  401207:	48 89 e5             	mov    %rsp,%rbp
  40120a:	48 83 ec 20          	sub    $0x20,%rsp
  40120e:	c7 45 fc 0a 00 00 00 	movl   $0xa,-0x4(%rbp)
  401215:	bf 04 00 00 00       	mov    $0x4,%edi
  40121a:	e8 41 fe ff ff       	call   401060 <malloc@plt>
  40121f:	48 89 05 42 2e 00 00 	mov    %rax,0x2e42(%rip)        # 404068 <ptr>
  401226:	be 01 00 00 00       	mov    $0x1,%esi
  40122b:	bf 43 20 40 00       	mov    $0x402043,%edi
  401230:	b8 00 00 00 00       	mov    $0x0,%eax
  401235:	e8 06 fe ff ff       	call   401040 <printf@plt>
  40123a:	48 8d 45 e0          	lea    -0x20(%rbp),%rax
  40123e:	b9 00 00 00 00       	mov    $0x0,%ecx
  401243:	ba 86 11 40 00       	mov    $0x401186,%edx
  401248:	be 00 00 00 00       	mov    $0x0,%esi
  40124d:	48 89 c7             	mov    %rax,%rdi
  401250:	e8 1b fe ff ff       	call   401070 <pthread_create@plt>
  401255:	89 45 f8             	mov    %eax,-0x8(%rbp)
  401258:	be 02 00 00 00       	mov    $0x2,%esi
  40125d:	bf 43 20 40 00       	mov    $0x402043,%edi
  401262:	b8 00 00 00 00       	mov    $0x0,%eax
  401267:	e8 d4 fd ff ff       	call   401040 <printf@plt>
  40126c:	48 8d 45 e0          	lea    -0x20(%rbp),%rax
  401270:	48 83 c0 08          	add    $0x8,%rax
  401274:	b9 01 00 00 00       	mov    $0x1,%ecx
  401279:	ba d2 11 40 00       	mov    $0x4011d2,%edx
  40127e:	be 00 00 00 00       	mov    $0x0,%esi
  401283:	48 89 c7             	mov    %rax,%rdi
  401286:	e8 e5 fd ff ff       	call   401070 <pthread_create@plt>
  40128b:	89 45 f8             	mov    %eax,-0x8(%rbp)
  40128e:	48 8d 45 e0          	lea    -0x20(%rbp),%rax
  401292:	be 00 00 00 00       	mov    $0x0,%esi
  401297:	48 89 c7             	mov    %rax,%rdi
  40129a:	e8 e1 fd ff ff       	call   401080 <pthread_join@plt>
  40129f:	48 8d 45 e0          	lea    -0x20(%rbp),%rax
  4012a3:	48 83 c0 08          	add    $0x8,%rax
  4012a7:	be 00 00 00 00       	mov    $0x0,%esi
  4012ac:	48 89 c7             	mov    %rax,%rdi
  4012af:	e8 cc fd ff ff       	call   401080 <pthread_join@plt>
  4012b4:	bf 00 00 00 00       	mov    $0x0,%edi
  4012b9:	e8 92 fd ff ff       	call   401050 <pthread_exit@plt>

Disassembly of section .fini:

00000000004012c0 <_fini>:
  4012c0:	f3 0f 1e fa          	endbr64 
  4012c4:	48 83 ec 08          	sub    $0x8,%rsp
  4012c8:	48 83 c4 08          	add    $0x8,%rsp
  4012cc:	c3                   	ret    
